; Function Attrs: nounwind uwtable
define internal ptr @monitoring_restart_events(ptr readnone captures(none) %0, ptr readnone captures(none) %1) #2 {
  %3 = tail call align 8 ptr @llvm.threadlocal.address.p0(ptr align 8 @_Py_tss_tstate)
  %4 = load ptr, ptr %3, align 8, !tbaa !76
  %5 = getelementptr inbounds nuw i8, ptr %4, i64 16
  %6 = load ptr, ptr %5, align 8, !tbaa !47
  tail call void @_PyEval_StopTheWorld(ptr noundef %6) #11
  %7 = load atomic i64, ptr %6 monotonic, align 8
  %8 = trunc i64 %7 to i32
  %9 = add i32 %8, 512
  %10 = icmp ult i32 %9, 257
  br i1 %10, label %11, label %14

11:                                               ; preds = %2
  tail call void @_PyEval_StartTheWorld(ptr noundef nonnull %6) #11
  %12 = load ptr, ptr @PyExc_OverflowError, align 8, !tbaa !46
  %13 = tail call ptr (ptr, ptr, ...) @PyErr_Format(ptr noundef %12, ptr noundef nonnull @.str) #11
  br label %monitoring_restart_events_impl.exit

14:                                               ; preds = %2
  %15 = add i64 %7, 256
  %16 = and i64 %15, 4294967295
  %17 = getelementptr inbounds nuw i8, ptr %6, i64 7320
  store i64 %16, ptr %17, align 8, !tbaa !106
  %18 = load ptr, ptr %5, align 8, !tbaa !47
  %19 = load atomic i64, ptr %18 monotonic, align 8
  %20 = zext i32 %9 to i64
  %21 = and i64 %19, 255
  %22 = or i64 %21, %20
  %23 = cmpxchg ptr %18, i64 %19, i64 %22 seq_cst seq_cst, align 8
  %24 = extractvalue { i64, i1 } %23, 1
  br i1 %24, label %set_version_raw.exit.i.i, label %_Py_atomic_compare_exchange_uintptr.exit.i.i.i

_Py_atomic_compare_exchange_uintptr.exit.i.i.i:   ; preds = %14, %_Py_atomic_compare_exchange_uintptr.exit.i.i.i
  %25 = phi { i64, i1 } [ %29, %_Py_atomic_compare_exchange_uintptr.exit.i.i.i ], [ %23, %14 ]
  %26 = extractvalue { i64, i1 } %25, 0
  %27 = and i64 %26, 255
  %28 = or i64 %27, %20
  %29 = cmpxchg ptr %18, i64 %26, i64 %28 seq_cst seq_cst, align 8
  %30 = extractvalue { i64, i1 } %29, 1
  br i1 %30, label %set_version_raw.exit.i.i, label %_Py_atomic_compare_exchange_uintptr.exit.i.i.i

set_version_raw.exit.i.i:                         ; preds = %_Py_atomic_compare_exchange_uintptr.exit.i.i.i, %14
  %31 = getelementptr inbounds nuw i8, ptr %4, i64 24
  %32 = load atomic i64, ptr %31 monotonic, align 8
  %33 = and i64 %32, 255
  %34 = or i64 %33, %20
  %35 = cmpxchg ptr %31, i64 %32, i64 %34 seq_cst seq_cst, align 8
  %36 = extractvalue { i64, i1 } %35, 1
  br i1 %36, label %set_global_version.exit.i, label %_Py_atomic_compare_exchange_uintptr.exit.i4.i.i

_Py_atomic_compare_exchange_uintptr.exit.i4.i.i:  ; preds = %set_version_raw.exit.i.i, %_Py_atomic_compare_exchange_uintptr.exit.i4.i.i
  %37 = phi { i64, i1 } [ %41, %_Py_atomic_compare_exchange_uintptr.exit.i4.i.i ], [ %35, %set_version_raw.exit.i.i ]
  %38 = extractvalue { i64, i1 } %37, 0
  %39 = and i64 %38, 255
  %40 = or i64 %39, %20
  %41 = cmpxchg ptr %31, i64 %38, i64 %40 seq_cst seq_cst, align 8
  %42 = extractvalue { i64, i1 } %41, 1
  br i1 %42, label %set_global_version.exit.i, label %_Py_atomic_compare_exchange_uintptr.exit.i4.i.i

set_global_version.exit.i:                        ; preds = %_Py_atomic_compare_exchange_uintptr.exit.i4.i.i, %set_version_raw.exit.i.i
  %43 = tail call fastcc i32 @instrument_all_executing_code_objects(ptr noundef nonnull %6)
  tail call void @_PyEval_StartTheWorld(ptr noundef nonnull %6) #11
  %.not.i = icmp eq i32 %43, 0
  %_Py_NoneStruct..i = select i1 %.not.i, ptr @_Py_NoneStruct, ptr null
  br label %monitoring_restart_events_impl.exit

monitoring_restart_events_impl.exit:              ; preds = %11, %set_global_version.exit.i
  %.0.i = phi ptr [ null, %11 ], [ %_Py_NoneStruct..i, %set_global_version.exit.i ]
  ret ptr %.0.i
}